target datalayout = "e-m:e-p270:32:32-p271:32:32-p272:64:64-i64:64-i128:128-f80:128-n8:16:32:64-S128"
target triple = "x86_64-pc-linux-gnu"

%struct.OCSP_TBLSTR = type { i64, ptr }

@OCSP_cert_status_str.cstat_tbl = internal constant [3 x %struct.OCSP_TBLSTR] [%struct.OCSP_TBLSTR { i64 0, ptr @.str.6 }, %struct.OCSP_TBLSTR { i64 1, ptr @.str.7 }, %struct.OCSP_TBLSTR { i64 2, ptr @.str.8 }], align 16
@.str.41 = private unnamed_addr constant [10 x i8] c"(UNKNOWN)\00", align 1

; Function Attrs: nounwind uwtable
define internal ptr @do_table2string(i64 noundef %0, ptr noundef %1, i64 noundef %2) #0 {
  %4 = alloca ptr, align 8
  %5 = alloca i64, align 8
  %6 = alloca ptr, align 8
  %7 = alloca i64, align 8
  %8 = alloca i64, align 8
  %9 = alloca i32, align 4
  store i64 %0, ptr %5, align 8, !tbaa !3
  store ptr %1, ptr %6, align 8, !tbaa !7
  store i64 %2, ptr %7, align 8, !tbaa !3
  call void @llvm.lifetime.start.p0(i64 8, ptr %8) #4
  store i64 0, ptr %8, align 8, !tbaa !3
  br label %10

10:                                               ; preds = %25, %3
  %11 = load i64, ptr %8, align 8, !tbaa !3
  %12 = load i64, ptr %7, align 8, !tbaa !3
  %13 = icmp ult i64 %11, %12
  br i1 %13, label %14, label %30

14:                                               ; preds = %10
  %15 = load ptr, ptr %6, align 8, !tbaa !7
  %16 = getelementptr inbounds nuw %struct.OCSP_TBLSTR, ptr %15, i32 0, i32 0
  %17 = load i64, ptr %16, align 8, !tbaa !9
  %18 = load i64, ptr %5, align 8, !tbaa !3
  %19 = icmp eq i64 %17, %18
  br i1 %19, label %20, label %24

20:                                               ; preds = %14
  %21 = load ptr, ptr %6, align 8, !tbaa !7
  %22 = getelementptr inbounds nuw %struct.OCSP_TBLSTR, ptr %21, i32 0, i32 1
  %23 = load ptr, ptr %22, align 8, !tbaa !12
  store ptr %23, ptr %4, align 8
  store i32 1, ptr %9, align 4
  br label %31

24:                                               ; preds = %14
  br label %25

25:                                               ; preds = %24
  %26 = load i64, ptr %8, align 8, !tbaa !3
  %27 = add i64 %26, 1
  store i64 %27, ptr %8, align 8, !tbaa !3
  %28 = load ptr, ptr %6, align 8, !tbaa !7
  %29 = getelementptr inbounds nuw %struct.OCSP_TBLSTR, ptr %28, i32 1
  store ptr %29, ptr %6, align 8, !tbaa !7
  br label %10, !llvm.loop !13

30:                                               ; preds = %10
  store ptr @.str.41, ptr %4, align 8
  store i32 1, ptr %9, align 4
  br label %31

31:                                               ; preds = %30, %20
  call void @llvm.lifetime.end.p0(i64 8, ptr %8) #4
  %32 = load ptr, ptr %4, align 8
  ret ptr %32
}

; Function Attrs: nounwind uwtable
define ptr @OCSP_cert_status_str(i64 noundef %0) #0 {
  %2 = alloca i64, align 8
  store i64 %0, ptr %2, align 8, !tbaa !3
  %3 = load i64, ptr %2, align 8, !tbaa !3
  %4 = call ptr @do_table2string(i64 noundef %3, ptr noundef @OCSP_cert_status_str.cstat_tbl, i64 noundef 3)
  ret ptr %4
}